target datalayout = "e-m:e-p270:32:32-p271:32:32-p272:64:64-i64:64-i128:128-f80:128-n8:16:32:64-S128"
target triple = "x86_64-pc-linux-gnu"

%struct.pmix_class_t = type { ptr, ptr, ptr, ptr, i32, i32, ptr, ptr, i64 }
%struct.pmix_list_t = type { %struct.pmix_object_t, %struct.pmix_list_item_t, i64 }
%struct.pmix_object_t = type { %union.pthread_mutex_t, ptr, i32, %struct.pmix_tma }
%union.pthread_mutex_t = type { %struct.__pthread_mutex_s }
%struct.__pthread_mutex_s = type { i32, i32, i32, i32, i32, i16, i16, %struct.__pthread_internal_list }
%struct.__pthread_internal_list = type { ptr, ptr }
%struct.pmix_tma = type { ptr, ptr, ptr, ptr, ptr, ptr, ptr, ptr }
%struct.pmix_list_item_t = type { %struct.pmix_object_t, ptr, ptr, i32 }
%struct.timeval = type { i64, i64 }
%struct.pmix_psensor_file_component_t = type { %struct.pmix_mca_base_component_2_1_0_t, %struct.pmix_list_t }
%struct.pmix_mca_base_component_2_1_0_t = type { i32, i32, i32, [16 x i8], i32, i32, i32, [32 x i8], i32, i32, i32, [64 x i8], i32, i32, i32, ptr, ptr, ptr, ptr, [32 x i8] }
%struct.event = type { %struct.event_callback, %union.anon.0, i32, ptr, %union.anon.2, i16, i16, %struct.timeval }
%struct.event_callback = type { %struct.anon, i16, i8, i8, %union.anon, ptr }
%struct.anon = type { ptr, ptr }
%union.anon = type { ptr }
%union.anon.0 = type { %struct.anon.1 }
%struct.anon.1 = type { ptr, ptr }
%union.anon.2 = type { %struct.anon.3 }
%struct.anon.3 = type { %struct.anon.4, %struct.timeval }
%struct.anon.4 = type { ptr, ptr }
%struct.file_tracker_t = type { %struct.pmix_list_item_t, ptr, ptr, i8, %struct.event, %struct.event, %struct.timeval, i32, ptr, i8, i8, i8, i64, i64, i64, i32, i32, i32, i8, ptr, i64 }
%struct.file_caddy_t = type { %struct.pmix_object_t, %struct.event, ptr, ptr }

@.str.2 = private unnamed_addr constant [21 x i8] c"pthread_mutex_lock()\00", align 1
@pmix_mca_psensor_file_component = external global %struct.pmix_psensor_file_component_t, align 8

; Function Attrs: inlinehint nounwind uwtable
define internal void @pmix_tma_free(ptr noundef %0, ptr noundef %1) #3 {
  %3 = alloca ptr, align 8
  %4 = alloca ptr, align 8
  store ptr %0, ptr %3, align 8, !tbaa !97
  store ptr %1, ptr %4, align 8, !tbaa !57
  %5 = load ptr, ptr %3, align 8, !tbaa !97
  %6 = icmp ne ptr null, %5
  br i1 %6, label %7, label %13

7:                                                ; preds = %2
  %8 = load ptr, ptr %3, align 8, !tbaa !97
  %9 = getelementptr inbounds nuw %struct.pmix_tma, ptr %8, i32 0, i32 5
  %10 = load ptr, ptr %9, align 8, !tbaa !99
  %11 = load ptr, ptr %3, align 8, !tbaa !97
  %12 = load ptr, ptr %4, align 8, !tbaa !57
  call void %10(ptr noundef %11, ptr noundef %12)
  br label %15

13:                                               ; preds = %2
  %14 = load ptr, ptr %4, align 8, !tbaa !57
  call void @free(ptr noundef %14) #11
  br label %15

15:                                               ; preds = %13, %7
  ret void
}

; Function Attrs: inlinehint nounwind uwtable
define internal void @pmix_obj_run_destructors(ptr noundef %0) #3 {
  %2 = alloca ptr, align 8
  %3 = alloca ptr, align 8
  store ptr %0, ptr %2, align 8, !tbaa !72
  call void @llvm.lifetime.start.p0(i64 8, ptr %3) #11
  %4 = load ptr, ptr %2, align 8, !tbaa !72
  %5 = getelementptr inbounds nuw %struct.pmix_object_t, ptr %4, i32 0, i32 1
  %6 = load ptr, ptr %5, align 8, !tbaa !93
  %7 = getelementptr inbounds nuw %struct.pmix_class_t, ptr %6, i32 0, i32 7
  %8 = load ptr, ptr %7, align 8, !tbaa !94
  store ptr %8, ptr %3, align 8, !tbaa !57
  br label %9

9:                                                ; preds = %13, %1
  %10 = load ptr, ptr %3, align 8, !tbaa !57
  %11 = load ptr, ptr %10, align 8, !tbaa !57
  %12 = icmp ne ptr null, %11
  br i1 %12, label %13, label %19

13:                                               ; preds = %9
  %14 = load ptr, ptr %3, align 8, !tbaa !57
  %15 = load ptr, ptr %14, align 8, !tbaa !57
  %16 = load ptr, ptr %2, align 8, !tbaa !72
  call void %15(ptr noundef %16)
  %17 = load ptr, ptr %3, align 8, !tbaa !57
  %18 = getelementptr inbounds nuw ptr, ptr %17, i32 1
  store ptr %18, ptr %3, align 8, !tbaa !57
  br label %9, !llvm.loop !96

19:                                               ; preds = %9
  call void @llvm.lifetime.end.p0(i64 8, ptr %3) #11
  ret void
}

; Function Attrs: alwaysinline nounwind uwtable
define internal i32 @pmix_obj_update(ptr noundef %0, i32 noundef %1) #2 {
  %3 = alloca ptr, align 8
  %4 = alloca i32, align 4
  %5 = alloca i32, align 4
  store ptr %0, ptr %3, align 8, !tbaa !72
  store i32 %1, ptr %4, align 4, !tbaa !8
  call void @llvm.lifetime.start.p0(i64 4, ptr %5) #11
  %6 = load ptr, ptr %3, align 8, !tbaa !72
  %7 = getelementptr inbounds nuw %struct.pmix_object_t, ptr %6, i32 0, i32 0
  %8 = call i32 @pthread_mutex_lock(ptr noundef %7) #11
  store i32 %8, ptr %5, align 4, !tbaa !8
  %9 = load i32, ptr %5, align 4, !tbaa !8
  %10 = icmp eq i32 %9, 35
  br i1 %10, label %11, label %14

11:                                               ; preds = %2
  %12 = load i32, ptr %5, align 4, !tbaa !8
  %13 = call ptr @__errno_location() #13
  store i32 %12, ptr %13, align 4, !tbaa !8
  call void @perror(ptr noundef @.str.2)
  call void @abort() #14
  unreachable

14:                                               ; preds = %2
  %15 = load i32, ptr %4, align 4, !tbaa !8
  %16 = load ptr, ptr %3, align 8, !tbaa !72
  %17 = getelementptr inbounds nuw %struct.pmix_object_t, ptr %16, i32 0, i32 2
  %18 = load i32, ptr %17, align 8, !tbaa !92
  %19 = add nsw i32 %18, %15
  store i32 %19, ptr %17, align 8, !tbaa !92
  store i32 %19, ptr %5, align 4, !tbaa !8
  %20 = load ptr, ptr %3, align 8, !tbaa !72
  %21 = getelementptr inbounds nuw %struct.pmix_object_t, ptr %20, i32 0, i32 0
  %22 = call i32 @pthread_mutex_unlock(ptr noundef %21) #11
  %23 = load i32, ptr %5, align 4, !tbaa !8
  call void @llvm.lifetime.end.p0(i64 4, ptr %5) #11
  ret i32 %23
}

; Function Attrs: inlinehint nounwind uwtable
define internal ptr @pmix_list_remove_item(ptr noundef %0, ptr noundef %1) #3 {
  %3 = alloca ptr, align 8
  %4 = alloca ptr, align 8
  store ptr %0, ptr %3, align 8, !tbaa !114
  store ptr %1, ptr %4, align 8, !tbaa !116
  %5 = load ptr, ptr %4, align 8, !tbaa !116
  %6 = getelementptr inbounds nuw %struct.pmix_list_item_t, ptr %5, i32 0, i32 1
  %7 = load ptr, ptr %6, align 8, !tbaa !118
  %8 = load ptr, ptr %4, align 8, !tbaa !116
  %9 = getelementptr inbounds nuw %struct.pmix_list_item_t, ptr %8, i32 0, i32 2
  %10 = load ptr, ptr %9, align 8, !tbaa !117
  %11 = getelementptr inbounds nuw %struct.pmix_list_item_t, ptr %10, i32 0, i32 1
  store volatile ptr %7, ptr %11, align 8, !tbaa !118
  %12 = load ptr, ptr %4, align 8, !tbaa !116
  %13 = getelementptr inbounds nuw %struct.pmix_list_item_t, ptr %12, i32 0, i32 2
  %14 = load ptr, ptr %13, align 8, !tbaa !117
  %15 = load ptr, ptr %4, align 8, !tbaa !116
  %16 = getelementptr inbounds nuw %struct.pmix_list_item_t, ptr %15, i32 0, i32 1
  %17 = load ptr, ptr %16, align 8, !tbaa !118
  %18 = getelementptr inbounds nuw %struct.pmix_list_item_t, ptr %17, i32 0, i32 2
  store volatile ptr %14, ptr %18, align 8, !tbaa !117
  %19 = load ptr, ptr %3, align 8, !tbaa !114
  %20 = getelementptr inbounds nuw %struct.pmix_list_t, ptr %19, i32 0, i32 2
  %21 = load volatile i64, ptr %20, align 8, !tbaa !119
  %22 = add i64 %21, -1
  store volatile i64 %22, ptr %20, align 8, !tbaa !119
  %23 = load ptr, ptr %4, align 8, !tbaa !116
  %24 = getelementptr inbounds nuw %struct.pmix_list_item_t, ptr %23, i32 0, i32 2
  %25 = load ptr, ptr %24, align 8, !tbaa !117
  ret ptr %25
}

; Function Attrs: inlinehint nounwind uwtable
define internal void @pmix_atomic_rmb() #3 {
  fence acquire
  ret void
}

; Function Attrs: nounwind uwtable
define internal void @del_tracker(i32 noundef %0, i16 noundef signext %1, ptr noundef %2) #0 {
  %4 = alloca i32, align 4
  %5 = alloca i16, align 2
  %6 = alloca ptr, align 8
  %7 = alloca ptr, align 8
  %8 = alloca ptr, align 8
  %9 = alloca ptr, align 8
  %10 = alloca ptr, align 8
  %11 = alloca ptr, align 8
  store i32 %0, ptr %4, align 4, !tbaa !8
  store i16 %1, ptr %5, align 2, !tbaa !110
  store ptr %2, ptr %6, align 8, !tbaa !57
  call void @llvm.lifetime.start.p0(i64 8, ptr %7) #11
  %12 = load ptr, ptr %6, align 8, !tbaa !57
  store ptr %12, ptr %7, align 8, !tbaa !57
  call void @llvm.lifetime.start.p0(i64 8, ptr %8) #11
  call void @llvm.lifetime.start.p0(i64 8, ptr %9) #11
  call void @pmix_atomic_rmb()
  %13 = load ptr, ptr getelementptr inbounds nuw (%struct.pmix_list_item_t, ptr getelementptr inbounds nuw (%struct.pmix_list_t, ptr getelementptr inbounds nuw (%struct.pmix_psensor_file_component_t, ptr @pmix_mca_psensor_file_component, i32 0, i32 1), i32 0, i32 1), i32 0, i32 1), align 8, !tbaa !127
  store ptr %13, ptr %8, align 8, !tbaa !57
  %14 = load ptr, ptr %8, align 8, !tbaa !57
  %15 = getelementptr inbounds nuw %struct.pmix_list_item_t, ptr %14, i32 0, i32 1
  %16 = load ptr, ptr %15, align 8, !tbaa !118
  store ptr %16, ptr %9, align 8, !tbaa !57
  br label %17

17:                                               ; preds = %75, %3
  %18 = load ptr, ptr %8, align 8, !tbaa !57
  %19 = icmp ne ptr %18, getelementptr inbounds nuw (%struct.pmix_list_t, ptr getelementptr inbounds nuw (%struct.pmix_psensor_file_component_t, ptr @pmix_mca_psensor_file_component, i32 0, i32 1), i32 0, i32 1)
  br i1 %19, label %20, label %80

20:                                               ; preds = %17
  %21 = load ptr, ptr %8, align 8, !tbaa !57
  %22 = getelementptr inbounds nuw %struct.file_tracker_t, ptr %21, i32 0, i32 1
  %23 = load ptr, ptr %22, align 8, !tbaa !58
  %24 = load ptr, ptr %7, align 8, !tbaa !57
  %25 = getelementptr inbounds nuw %struct.file_caddy_t, ptr %24, i32 0, i32 2
  %26 = load ptr, ptr %25, align 8, !tbaa !78
  %27 = icmp ne ptr %23, %26
  br i1 %27, label %28, label %29

28:                                               ; preds = %20
  br label %75

29:                                               ; preds = %20
  %30 = load ptr, ptr %7, align 8, !tbaa !57
  %31 = getelementptr inbounds nuw %struct.file_caddy_t, ptr %30, i32 0, i32 3
  %32 = load ptr, ptr %31, align 8, !tbaa !80
  %33 = icmp eq ptr null, %32
  br i1 %33, label %48, label %34

34:                                               ; preds = %29
  %35 = load ptr, ptr %8, align 8, !tbaa !57
  %36 = getelementptr inbounds nuw %struct.file_tracker_t, ptr %35, i32 0, i32 2
  %37 = load ptr, ptr %36, align 8, !tbaa !81
  %38 = icmp ne ptr null, %37
  br i1 %38, label %39, label %74

39:                                               ; preds = %34
  %40 = load ptr, ptr %8, align 8, !tbaa !57
  %41 = getelementptr inbounds nuw %struct.file_tracker_t, ptr %40, i32 0, i32 2
  %42 = load ptr, ptr %41, align 8, !tbaa !81
  %43 = load ptr, ptr %7, align 8, !tbaa !57
  %44 = getelementptr inbounds nuw %struct.file_caddy_t, ptr %43, i32 0, i32 3
  %45 = load ptr, ptr %44, align 8, !tbaa !80
  %46 = call i32 @strcmp(ptr noundef %42, ptr noundef %45) #12
  %47 = icmp eq i32 0, %46
  br i1 %47, label %48, label %74

48:                                               ; preds = %39, %29
  %49 = load ptr, ptr %8, align 8, !tbaa !57
  %50 = getelementptr inbounds nuw %struct.file_tracker_t, ptr %49, i32 0, i32 0
  %51 = call ptr @pmix_list_remove_item(ptr noundef getelementptr inbounds nuw (%struct.pmix_psensor_file_component_t, ptr @pmix_mca_psensor_file_component, i32 0, i32 1), ptr noundef %50)
  br label %52

52:                                               ; preds = %48
  call void @llvm.lifetime.start.p0(i64 8, ptr %10) #11
  %53 = load ptr, ptr %8, align 8, !tbaa !57
  store ptr %53, ptr %10, align 8, !tbaa !72
  %54 = load ptr, ptr %10, align 8, !tbaa !72
  %55 = call i32 @pmix_obj_update(ptr noundef %54, i32 noundef -1)
  %56 = icmp eq i32 0, %55
  br i1 %56, label %57, label %71

57:                                               ; preds = %52
  %58 = load ptr, ptr %10, align 8, !tbaa !72
  call void @pmix_obj_run_destructors(ptr noundef %58)
  %59 = load ptr, ptr %10, align 8, !tbaa !72
  %60 = getelementptr inbounds nuw %struct.pmix_object_t, ptr %59, i32 0, i32 3
  %61 = getelementptr inbounds nuw %struct.pmix_tma, ptr %60, i32 0, i32 5
  %62 = load ptr, ptr %61, align 8, !tbaa !74
  %63 = icmp ne ptr null, %62
  br i1 %63, label %64, label %68

64:                                               ; preds = %57
  %65 = load ptr, ptr %10, align 8, !tbaa !72
  %66 = getelementptr inbounds nuw %struct.pmix_object_t, ptr %65, i32 0, i32 3
  %67 = load ptr, ptr %8, align 8, !tbaa !57
  call void @pmix_tma_free(ptr noundef %66, ptr noundef %67)
  br label %70

68:                                               ; preds = %57
  %69 = load ptr, ptr %8, align 8, !tbaa !57
  call void @free(ptr noundef %69) #11
  br label %70

70:                                               ; preds = %68, %64
  store ptr null, ptr %8, align 8, !tbaa !57
  br label %71

71:                                               ; preds = %70, %52
  call void @llvm.lifetime.end.p0(i64 8, ptr %10) #11
  br label %72

72:                                               ; preds = %71
  br label %73

73:                                               ; preds = %72
  br label %74

74:                                               ; preds = %73, %39, %34
  br label %75

75:                                               ; preds = %74, %28
  %76 = load ptr, ptr %9, align 8, !tbaa !57
  store ptr %76, ptr %8, align 8, !tbaa !57
  %77 = load ptr, ptr %8, align 8, !tbaa !57
  %78 = getelementptr inbounds nuw %struct.pmix_list_item_t, ptr %77, i32 0, i32 1
  %79 = load ptr, ptr %78, align 8, !tbaa !118
  store ptr %79, ptr %9, align 8, !tbaa !57
  br label %17, !llvm.loop !130

80:                                               ; preds = %17
  br label %81

81:                                               ; preds = %80
  call void @llvm.lifetime.start.p0(i64 8, ptr %11) #11
  %82 = load ptr, ptr %7, align 8, !tbaa !57
  store ptr %82, ptr %11, align 8, !tbaa !72
  %83 = load ptr, ptr %11, align 8, !tbaa !72
  %84 = call i32 @pmix_obj_update(ptr noundef %83, i32 noundef -1)
  %85 = icmp eq i32 0, %84
  br i1 %85, label %86, label %100

86:                                               ; preds = %81
  %87 = load ptr, ptr %11, align 8, !tbaa !72
  call void @pmix_obj_run_destructors(ptr noundef %87)
  %88 = load ptr, ptr %11, align 8, !tbaa !72
  %89 = getelementptr inbounds nuw %struct.pmix_object_t, ptr %88, i32 0, i32 3
  %90 = getelementptr inbounds nuw %struct.pmix_tma, ptr %89, i32 0, i32 5
  %91 = load ptr, ptr %90, align 8, !tbaa !74
  %92 = icmp ne ptr null, %91
  br i1 %92, label %93, label %97

93:                                               ; preds = %86
  %94 = load ptr, ptr %11, align 8, !tbaa !72
  %95 = getelementptr inbounds nuw %struct.pmix_object_t, ptr %94, i32 0, i32 3
  %96 = load ptr, ptr %7, align 8, !tbaa !57
  call void @pmix_tma_free(ptr noundef %95, ptr noundef %96)
  br label %99

97:                                               ; preds = %86
  %98 = load ptr, ptr %7, align 8, !tbaa !57
  call void @free(ptr noundef %98) #11
  br label %99

99:                                               ; preds = %97, %93
  store ptr null, ptr %7, align 8, !tbaa !57
  br label %100

100:                                              ; preds = %99, %81
  call void @llvm.lifetime.end.p0(i64 8, ptr %11) #11
  br label %101

101:                                              ; preds = %100
  br label %102

102:                                              ; preds = %101
  call void @llvm.lifetime.end.p0(i64 8, ptr %9) #11
  call void @llvm.lifetime.end.p0(i64 8, ptr %8) #11
  call void @llvm.lifetime.end.p0(i64 8, ptr %7) #11
  ret void
}