; Function Attrs: nounwind uwtable
define internal void @del_tracker(i32 %0, i16 signext %1, ptr noundef %2) #0 {
  fence acquire
  %4 = load ptr, ptr getelementptr inbounds nuw (i8, ptr @pmix_mca_psensor_file_component, i64 464), align 8, !tbaa !102
  %.not43 = icmp eq ptr %4, getelementptr inbounds nuw (i8, ptr @pmix_mca_psensor_file_component, i64 344)
  br i1 %.not43, label %._crit_edge, label %.lr.ph

.lr.ph:                                           ; preds = %3
  %5 = getelementptr inbounds nuw i8, ptr %2, i64 248
  %6 = getelementptr inbounds nuw i8, ptr %2, i64 256
  br label %7

7:                                                ; preds = %.lr.ph, %50
  %.044 = phi ptr [ %4, %.lr.ph ], [ %.02645, %50 ]
  %.02645.in = getelementptr inbounds nuw i8, ptr %.044, i64 120
  %.02645 = load ptr, ptr %.02645.in, align 8, !tbaa !89
  %8 = getelementptr inbounds nuw i8, ptr %.044, i64 144
  %9 = load ptr, ptr %8, align 8, !tbaa !62
  %10 = load ptr, ptr %5, align 8, !tbaa !81
  %.not30 = icmp eq ptr %9, %10
  br i1 %.not30, label %11, label %50

11:                                               ; preds = %7
  %12 = load ptr, ptr %6, align 8, !tbaa !83
  %13 = icmp eq ptr %12, null
  br i1 %13, label %20, label %14

14:                                               ; preds = %11
  %15 = getelementptr inbounds nuw i8, ptr %.044, i64 152
  %16 = load ptr, ptr %15, align 8, !tbaa !84
  %.not31 = icmp eq ptr %16, null
  br i1 %.not31, label %50, label %17

17:                                               ; preds = %14
  %18 = tail call i32 @strcmp(ptr noundef nonnull dereferenceable(1) %16, ptr noundef nonnull dereferenceable(1) %12) #14
  %19 = icmp eq i32 %18, 0
  br i1 %19, label %20, label %50

20:                                               ; preds = %17, %11
  %21 = getelementptr inbounds nuw i8, ptr %.044, i64 128
  %22 = load ptr, ptr %21, align 8, !tbaa !88
  %23 = getelementptr inbounds nuw i8, ptr %22, i64 120
  store volatile ptr %.02645, ptr %23, align 8, !tbaa !89
  %24 = getelementptr inbounds nuw i8, ptr %.02645, i64 128
  store volatile ptr %22, ptr %24, align 8, !tbaa !88
  %25 = load volatile i64, ptr getelementptr inbounds nuw (i8, ptr @pmix_mca_psensor_file_component, i64 488), align 8, !tbaa !90
  %26 = add i64 %25, -1
  store volatile i64 %26, ptr getelementptr inbounds nuw (i8, ptr @pmix_mca_psensor_file_component, i64 488), align 8, !tbaa !90
  %27 = tail call i32 @pthread_mutex_lock(ptr noundef %.044) #13
  %28 = icmp eq i32 %27, 35
  br i1 %28, label %29, label %pmix_obj_update.exit33

29:                                               ; preds = %20
  %30 = tail call ptr @__errno_location() #16
  store i32 35, ptr %30, align 4, !tbaa !54
  tail call void @perror(ptr noundef nonnull @.str.2) #17
  tail call void @abort() #18
  unreachable

pmix_obj_update.exit33:                           ; preds = %20
  %31 = getelementptr inbounds nuw i8, ptr %.044, i64 48
  %32 = load i32, ptr %31, align 8, !tbaa !57
  %33 = add nsw i32 %32, -1
  store i32 %33, ptr %31, align 8, !tbaa !57
  %34 = tail call i32 @pthread_mutex_unlock(ptr noundef %.044) #13
  %35 = icmp eq i32 %33, 0
  br i1 %35, label %36, label %50

36:                                               ; preds = %pmix_obj_update.exit33
  %37 = getelementptr inbounds nuw i8, ptr %.044, i64 40
  %38 = load ptr, ptr %37, align 8, !tbaa !56
  %39 = getelementptr inbounds nuw i8, ptr %38, i64 48
  %40 = load ptr, ptr %39, align 8, !tbaa !76
  %41 = load ptr, ptr %40, align 8, !tbaa !59
  %.not6.i = icmp eq ptr %41, null
  br i1 %.not6.i, label %pmix_obj_run_destructors.exit, label %.lr.ph.i

.lr.ph.i:                                         ; preds = %36, %.lr.ph.i
  %42 = phi ptr [ %44, %.lr.ph.i ], [ %41, %36 ]
  %.07.i = phi ptr [ %43, %.lr.ph.i ], [ %40, %36 ]
  tail call void %42(ptr noundef %.044) #13
  %43 = getelementptr inbounds nuw i8, ptr %.07.i, i64 8
  %44 = load ptr, ptr %43, align 8, !tbaa !59
  %.not.i = icmp eq ptr %44, null
  br i1 %.not.i, label %pmix_obj_run_destructors.exit, label %.lr.ph.i, !llvm.loop !77

pmix_obj_run_destructors.exit:                    ; preds = %.lr.ph.i, %36
  %45 = getelementptr inbounds nuw i8, ptr %.044, i64 96
  %46 = load ptr, ptr %45, align 8, !tbaa !78
  %.not32 = icmp eq ptr %46, null
  br i1 %.not32, label %49, label %47

47:                                               ; preds = %pmix_obj_run_destructors.exit
  %48 = getelementptr inbounds nuw i8, ptr %.044, i64 56
  tail call void %46(ptr noundef nonnull %48, ptr noundef nonnull %.044) #13
  br label %50

49:                                               ; preds = %pmix_obj_run_destructors.exit
  tail call void @free(ptr noundef nonnull %.044) #13
  br label %50

50:                                               ; preds = %pmix_obj_update.exit33, %49, %47, %14, %17, %7
  %.not = icmp eq ptr %.02645, getelementptr inbounds nuw (i8, ptr @pmix_mca_psensor_file_component, i64 344)
  br i1 %.not, label %._crit_edge, label %7, !llvm.loop !105

._crit_edge:                                      ; preds = %50, %3
  %51 = tail call i32 @pthread_mutex_lock(ptr noundef %2) #13
  %52 = icmp eq i32 %51, 35
  br i1 %52, label %53, label %pmix_obj_update.exit

53:                                               ; preds = %._crit_edge
  %54 = tail call ptr @__errno_location() #16
  store i32 35, ptr %54, align 4, !tbaa !54
  tail call void @perror(ptr noundef nonnull @.str.2) #17
  tail call void @abort() #18
  unreachable

pmix_obj_update.exit:                             ; preds = %._crit_edge
  %55 = getelementptr inbounds nuw i8, ptr %2, i64 48
  %56 = load i32, ptr %55, align 8, !tbaa !57
  %57 = add nsw i32 %56, -1
  store i32 %57, ptr %55, align 8, !tbaa !57
  %58 = tail call i32 @pthread_mutex_unlock(ptr noundef %2) #13
  %59 = icmp eq i32 %57, 0
  br i1 %59, label %60, label %74

60:                                               ; preds = %pmix_obj_update.exit
  %61 = getelementptr inbounds nuw i8, ptr %2, i64 40
  %62 = load ptr, ptr %61, align 8, !tbaa !56
  %63 = getelementptr inbounds nuw i8, ptr %62, i64 48
  %64 = load ptr, ptr %63, align 8, !tbaa !76
  %65 = load ptr, ptr %64, align 8, !tbaa !59
  %.not6.i35 = icmp eq ptr %65, null
  br i1 %.not6.i35, label %pmix_obj_run_destructors.exit39, label %.lr.ph.i36

.lr.ph.i36:                                       ; preds = %60, %.lr.ph.i36
  %66 = phi ptr [ %68, %.lr.ph.i36 ], [ %65, %60 ]
  %.07.i37 = phi ptr [ %67, %.lr.ph.i36 ], [ %64, %60 ]
  tail call void %66(ptr noundef %2) #13
  %67 = getelementptr inbounds nuw i8, ptr %.07.i37, i64 8
  %68 = load ptr, ptr %67, align 8, !tbaa !59
  %.not.i38 = icmp eq ptr %68, null
  br i1 %.not.i38, label %pmix_obj_run_destructors.exit39, label %.lr.ph.i36, !llvm.loop !77

pmix_obj_run_destructors.exit39:                  ; preds = %.lr.ph.i36, %60
  %69 = getelementptr inbounds nuw i8, ptr %2, i64 96
  %70 = load ptr, ptr %69, align 8, !tbaa !78
  %.not29 = icmp eq ptr %70, null
  br i1 %.not29, label %73, label %71

71:                                               ; preds = %pmix_obj_run_destructors.exit39
  %72 = getelementptr inbounds nuw i8, ptr %2, i64 56
  tail call void %70(ptr noundef nonnull %72, ptr noundef nonnull %2) #13
  br label %74

73:                                               ; preds = %pmix_obj_run_destructors.exit39
  tail call void @free(ptr noundef nonnull %2) #13
  br label %74

74:                                               ; preds = %71, %73, %pmix_obj_update.exit
  ret void
}